target datalayout = "e-m:e-p270:32:32-p271:32:32-p272:64:64-i64:64-i128:128-f80:128-n8:16:32:64-S128"
target triple = "x86_64-pc-linux-gnu"

%"class.OpenImageIO::v3_1_0::DeepData" = type <{ ptr, i64, i32, [4 x i8] }>
%"class.std::vector" = type { %"struct.std::_Vector_base" }
%"struct.std::_Vector_base" = type { %"struct.std::_Vector_base<OpenImageIO::v3_1_0::TypeDesc, std::allocator<OpenImageIO::v3_1_0::TypeDesc>>::_Vector_impl" }
%"struct.std::_Vector_base<OpenImageIO::v3_1_0::TypeDesc, std::allocator<OpenImageIO::v3_1_0::TypeDesc>>::_Vector_impl" = type { %"struct.std::_Vector_base<OpenImageIO::v3_1_0::TypeDesc, std::allocator<OpenImageIO::v3_1_0::TypeDesc>>::_Vector_impl_data" }
%"struct.std::_Vector_base<OpenImageIO::v3_1_0::TypeDesc, std::allocator<OpenImageIO::v3_1_0::TypeDesc>>::_Vector_impl_data" = type { ptr, ptr, ptr }
%"class.std::vector.0" = type { %"struct.std::_Vector_base.1" }
%"struct.std::_Vector_base.1" = type { %"struct.std::_Vector_base<std::__cxx11::basic_string<char>, std::allocator<std::__cxx11::basic_string<char>>>::_Vector_impl" }
%"struct.std::_Vector_base<std::__cxx11::basic_string<char>, std::allocator<std::__cxx11::basic_string<char>>>::_Vector_impl" = type { %"struct.std::_Vector_base<std::__cxx11::basic_string<char>, std::allocator<std::__cxx11::basic_string<char>>>::_Vector_impl_data" }
%"struct.std::_Vector_base<std::__cxx11::basic_string<char>, std::allocator<std::__cxx11::basic_string<char>>>::_Vector_impl_data" = type { ptr, ptr, ptr }
%"class.OpenImageIO::v3_1_0::DeepData::Impl" = type <{ %"class.std::vector", %"class.std::vector.10", %"class.std::vector.10", %"class.std::vector.15", %"class.std::vector.15", %"class.std::vector.15", %"class.std::vector.20", %"class.std::vector.0", %"class.std::vector.25", i64, i32, i32, i32, i32, i32, i32, i8, %"class.OpenImageIO::v3_1_0::spin_mutex", [6 x i8] }>
%"class.std::vector.10" = type { %"struct.std::_Vector_base.11" }
%"struct.std::_Vector_base.11" = type { %"struct.std::_Vector_base<unsigned long, std::allocator<unsigned long>>::_Vector_impl" }
%"struct.std::_Vector_base<unsigned long, std::allocator<unsigned long>>::_Vector_impl" = type { %"struct.std::_Vector_base<unsigned long, std::allocator<unsigned long>>::_Vector_impl_data" }
%"struct.std::_Vector_base<unsigned long, std::allocator<unsigned long>>::_Vector_impl_data" = type { ptr, ptr, ptr }
%"class.std::vector.15" = type { %"struct.std::_Vector_base.16" }
%"struct.std::_Vector_base.16" = type { %"struct.std::_Vector_base<unsigned int, std::allocator<unsigned int>>::_Vector_impl" }
%"struct.std::_Vector_base<unsigned int, std::allocator<unsigned int>>::_Vector_impl" = type { %"struct.std::_Vector_base<unsigned int, std::allocator<unsigned int>>::_Vector_impl_data" }
%"struct.std::_Vector_base<unsigned int, std::allocator<unsigned int>>::_Vector_impl_data" = type { ptr, ptr, ptr }
%"class.std::vector.20" = type { %"struct.std::_Vector_base.21" }
%"struct.std::_Vector_base.21" = type { %"struct.std::_Vector_base<char, std::allocator<char>>::_Vector_impl" }
%"struct.std::_Vector_base<char, std::allocator<char>>::_Vector_impl" = type { %"struct.std::_Vector_base<char, std::allocator<char>>::_Vector_impl_data" }
%"struct.std::_Vector_base<char, std::allocator<char>>::_Vector_impl_data" = type { ptr, ptr, ptr }
%"class.std::vector.25" = type { %"struct.std::_Vector_base.26" }
%"struct.std::_Vector_base.26" = type { %"struct.std::_Vector_base<int, std::allocator<int>>::_Vector_impl" }
%"struct.std::_Vector_base<int, std::allocator<int>>::_Vector_impl" = type { %"struct.std::_Vector_base<int, std::allocator<int>>::_Vector_impl_data" }
%"struct.std::_Vector_base<int, std::allocator<int>>::_Vector_impl_data" = type { ptr, ptr, ptr }
%"class.OpenImageIO::v3_1_0::spin_mutex" = type { %"struct.std::atomic_flag" }
%"struct.std::atomic_flag" = type { %"struct.std::__atomic_flag_base" }
%"struct.std::__atomic_flag_base" = type { i8 }

; Function Attrs: mustprogress nounwind uwtable
define linkonce_odr noundef nonnull align 4 dereferenceable(4) ptr @_ZNSt6vectorIjSaIjEEixEm(ptr noundef nonnull align 8 dereferenceable(24) %0, i64 noundef %1) #5 comdat align 2 {
  %3 = alloca ptr, align 8
  %4 = alloca i64, align 8
  store ptr %0, ptr %3, align 8, !tbaa !130
  store i64 %1, ptr %4, align 8, !tbaa !64
  %5 = load ptr, ptr %3, align 8
  %6 = getelementptr inbounds nuw %"struct.std::_Vector_base.16", ptr %5, i32 0, i32 0
  %7 = getelementptr inbounds nuw %"struct.std::_Vector_base<unsigned int, std::allocator<unsigned int>>::_Vector_impl_data", ptr %6, i32 0, i32 0
  %8 = load ptr, ptr %7, align 8, !tbaa !132
  %9 = load i64, ptr %4, align 8, !tbaa !64
  %10 = getelementptr inbounds nuw i32, ptr %8, i64 %9
  ret ptr %10
}

; Function Attrs: mustprogress nounwind uwtable
define noundef i32 @_ZNK11OpenImageIO6v3_1_08DeepData7samplesEl(ptr noundef nonnull align 8 dereferenceable(20) %0, i64 noundef %1) #5 align 2 {
  %3 = alloca i32, align 4
  %4 = alloca ptr, align 8
  %5 = alloca i64, align 8
  store ptr %0, ptr %4, align 8, !tbaa !3
  store i64 %1, ptr %5, align 8, !tbaa !64
  %6 = load ptr, ptr %4, align 8
  %7 = load i64, ptr %5, align 8, !tbaa !64
  %8 = icmp slt i64 %7, 0
  br i1 %8, label %14, label %9

9:                                                ; preds = %2
  %10 = load i64, ptr %5, align 8, !tbaa !64
  %11 = getelementptr inbounds nuw %"class.OpenImageIO::v3_1_0::DeepData", ptr %6, i32 0, i32 1
  %12 = load i64, ptr %11, align 8, !tbaa !13
  %13 = icmp sge i64 %10, %12
  br i1 %13, label %14, label %15

14:                                               ; preds = %9, %2
  store i32 0, ptr %3, align 4
  br label %22

15:                                               ; preds = %9
  %16 = getelementptr inbounds nuw %"class.OpenImageIO::v3_1_0::DeepData", ptr %6, i32 0, i32 0
  %17 = load ptr, ptr %16, align 8, !tbaa !8
  %18 = getelementptr inbounds nuw %"class.OpenImageIO::v3_1_0::DeepData::Impl", ptr %17, i32 0, i32 3
  %19 = load i64, ptr %5, align 8, !tbaa !64
  %20 = call noundef nonnull align 4 dereferenceable(4) ptr @_ZNSt6vectorIjSaIjEEixEm(ptr noundef nonnull align 8 dereferenceable(24) %18, i64 noundef %19) #3
  %21 = load i32, ptr %20, align 4, !tbaa !71
  store i32 %21, ptr %3, align 4
  br label %22

22:                                               ; preds = %15, %14
  %23 = load i32, ptr %3, align 4
  ret i32 %23
}

; Function Attrs: mustprogress uwtable
define void @_ZN11OpenImageIO6v3_1_08DeepData17merge_deep_pixelsElRKS1_i(ptr noundef nonnull align 8 dereferenceable(20) %0, i64 noundef %1, ptr noundef nonnull align 8 dereferenceable(20) %2, i32 noundef %3) #6 align 2 {
  %5 = alloca ptr, align 8
  %6 = alloca i64, align 8
  %7 = alloca ptr, align 8
  %8 = alloca i32, align 4
  %9 = alloca i32, align 4
  %10 = alloca i32, align 4
  %11 = alloca i32, align 4
  %12 = alloca i32, align 4
  %13 = alloca i32, align 4
  %14 = alloca i32, align 4
  %15 = alloca i32, align 4
  %16 = alloca float, align 4
  %17 = alloca float, align 4
  store ptr %0, ptr %5, align 8, !tbaa !3
  store i64 %1, ptr %6, align 8, !tbaa !64
  store ptr %2, ptr %7, align 8, !tbaa !3
  store i32 %3, ptr %8, align 4, !tbaa !71
  %18 = load ptr, ptr %5, align 8
  call void @llvm.lifetime.start.p0(i64 4, ptr %9) #3
  %19 = load ptr, ptr %7, align 8, !tbaa !3
  %20 = load i32, ptr %8, align 4, !tbaa !71
  %21 = sext i32 %20 to i64
  %22 = call noundef i32 @_ZNK11OpenImageIO6v3_1_08DeepData7samplesEl(ptr noundef nonnull align 8 dereferenceable(20) %19, i64 noundef %21)
  store i32 %22, ptr %9, align 4, !tbaa !71
  %23 = load i32, ptr %9, align 4, !tbaa !71
  %24 = icmp eq i32 %23, 0
  br i1 %24, label %25, label %26

25:                                               ; preds = %4
  store i32 1, ptr %10, align 4
  br label %98

26:                                               ; preds = %4
  call void @llvm.lifetime.start.p0(i64 4, ptr %11) #3
  %27 = load i64, ptr %6, align 8, !tbaa !64
  %28 = call noundef i32 @_ZNK11OpenImageIO6v3_1_08DeepData7samplesEl(ptr noundef nonnull align 8 dereferenceable(20) %18, i64 noundef %27)
  store i32 %28, ptr %11, align 4, !tbaa !71
  %29 = load i32, ptr %11, align 4, !tbaa !71
  %30 = icmp eq i32 %29, 0
  br i1 %30, label %31, label %37

31:                                               ; preds = %26
  %32 = load i64, ptr %6, align 8, !tbaa !64
  %33 = load ptr, ptr %7, align 8, !tbaa !3
  %34 = load i32, ptr %8, align 4, !tbaa !71
  %35 = sext i32 %34 to i64
  %36 = call noundef zeroext i1 @_ZN11OpenImageIO6v3_1_08DeepData15copy_deep_pixelElRKS1_l(ptr noundef nonnull align 8 dereferenceable(20) %18, i64 noundef %32, ptr noundef nonnull align 8 dereferenceable(20) %33, i64 noundef %35)
  store i32 1, ptr %10, align 4
  br label %97

37:                                               ; preds = %26
  %38 = load i64, ptr %6, align 8, !tbaa !64
  %39 = load i32, ptr %11, align 4, !tbaa !71
  %40 = load i32, ptr %9, align 4, !tbaa !71
  %41 = add nsw i32 %39, %40
  call void @_ZN11OpenImageIO6v3_1_08DeepData11set_samplesEli(ptr noundef nonnull align 8 dereferenceable(20) %18, i64 noundef %38, i32 noundef %41)
  call void @llvm.lifetime.start.p0(i64 4, ptr %12) #3
  store i32 0, ptr %12, align 4, !tbaa !71
  br label %42

42:                                               ; preds = %57, %37
  %43 = load i32, ptr %12, align 4, !tbaa !71
  %44 = load i32, ptr %9, align 4, !tbaa !71
  %45 = icmp slt i32 %43, %44
  br i1 %45, label %47, label %46

46:                                               ; preds = %42
  store i32 2, ptr %10, align 4
  call void @llvm.lifetime.end.p0(i64 4, ptr %12) #3
  br label %60

47:                                               ; preds = %42
  %48 = load i64, ptr %6, align 8, !tbaa !64
  %49 = load i32, ptr %11, align 4, !tbaa !71
  %50 = load i32, ptr %12, align 4, !tbaa !71
  %51 = add nsw i32 %49, %50
  %52 = load ptr, ptr %7, align 8, !tbaa !3
  %53 = load i32, ptr %8, align 4, !tbaa !71
  %54 = sext i32 %53 to i64
  %55 = load i32, ptr %12, align 4, !tbaa !71
  %56 = call noundef zeroext i1 @_ZN11OpenImageIO6v3_1_08DeepData16copy_deep_sampleEliRKS1_li(ptr noundef nonnull align 8 dereferenceable(20) %18, i64 noundef %48, i32 noundef %51, ptr noundef nonnull align 8 dereferenceable(20) %52, i64 noundef %54, i32 noundef %55)
  br label %57

57:                                               ; preds = %47
  %58 = load i32, ptr %12, align 4, !tbaa !71
  %59 = add nsw i32 %58, 1
  store i32 %59, ptr %12, align 4, !tbaa !71
  br label %42, !llvm.loop !440

60:                                               ; preds = %46
  %61 = load i64, ptr %6, align 8, !tbaa !64
  call void @_ZN11OpenImageIO6v3_1_08DeepData4sortEl(ptr noundef nonnull align 8 dereferenceable(20) %18, i64 noundef %61)
  call void @llvm.lifetime.start.p0(i64 4, ptr %13) #3
  %62 = getelementptr inbounds nuw %"class.OpenImageIO::v3_1_0::DeepData", ptr %18, i32 0, i32 0
  %63 = load ptr, ptr %62, align 8, !tbaa !8
  %64 = getelementptr inbounds nuw %"class.OpenImageIO::v3_1_0::DeepData::Impl", ptr %63, i32 0, i32 10
  %65 = load i32, ptr %64, align 8, !tbaa !75
  store i32 %65, ptr %13, align 4, !tbaa !71
  call void @llvm.lifetime.start.p0(i64 4, ptr %14) #3
  %66 = getelementptr inbounds nuw %"class.OpenImageIO::v3_1_0::DeepData", ptr %18, i32 0, i32 0
  %67 = load ptr, ptr %66, align 8, !tbaa !8
  %68 = getelementptr inbounds nuw %"class.OpenImageIO::v3_1_0::DeepData::Impl", ptr %67, i32 0, i32 11
  %69 = load i32, ptr %68, align 4, !tbaa !76
  store i32 %69, ptr %14, align 4, !tbaa !71
  call void @llvm.lifetime.start.p0(i64 4, ptr %15) #3
  store i32 0, ptr %15, align 4, !tbaa !71
  br label %70

70:                                               ; preds = %91, %60
  %71 = load i32, ptr %15, align 4, !tbaa !71
  %72 = load i64, ptr %6, align 8, !tbaa !64
  %73 = call noundef i32 @_ZNK11OpenImageIO6v3_1_08DeepData7samplesEl(ptr noundef nonnull align 8 dereferenceable(20) %18, i64 noundef %72)
  %74 = icmp slt i32 %71, %73
  br i1 %74, label %76, label %75

75:                                               ; preds = %70
  store i32 5, ptr %10, align 4
  call void @llvm.lifetime.end.p0(i64 4, ptr %15) #3
  br label %94

76:                                               ; preds = %70
  call void @llvm.lifetime.start.p0(i64 4, ptr %16) #3
  %77 = load i64, ptr %6, align 8, !tbaa !64
  %78 = load i32, ptr %13, align 4, !tbaa !71
  %79 = load i32, ptr %15, align 4, !tbaa !71
  %80 = call noundef float @_ZNK11OpenImageIO6v3_1_08DeepData10deep_valueElii(ptr noundef nonnull align 8 dereferenceable(20) %18, i64 noundef %77, i32 noundef %78, i32 noundef %79)
  store float %80, ptr %16, align 4, !tbaa !165
  call void @llvm.lifetime.start.p0(i64 4, ptr %17) #3
  %81 = load i64, ptr %6, align 8, !tbaa !64
  %82 = load i32, ptr %14, align 4, !tbaa !71
  %83 = load i32, ptr %15, align 4, !tbaa !71
  %84 = call noundef float @_ZNK11OpenImageIO6v3_1_08DeepData10deep_valueElii(ptr noundef nonnull align 8 dereferenceable(20) %18, i64 noundef %81, i32 noundef %82, i32 noundef %83)
  store float %84, ptr %17, align 4, !tbaa !165
  %85 = load i64, ptr %6, align 8, !tbaa !64
  %86 = load float, ptr %16, align 4, !tbaa !165
  %87 = call noundef zeroext i1 @_ZN11OpenImageIO6v3_1_08DeepData5splitElf(ptr noundef nonnull align 8 dereferenceable(20) %18, i64 noundef %85, float noundef %86)
  %88 = load i64, ptr %6, align 8, !tbaa !64
  %89 = load float, ptr %17, align 4, !tbaa !165
  %90 = call noundef zeroext i1 @_ZN11OpenImageIO6v3_1_08DeepData5splitElf(ptr noundef nonnull align 8 dereferenceable(20) %18, i64 noundef %88, float noundef %89)
  call void @llvm.lifetime.end.p0(i64 4, ptr %17) #3
  call void @llvm.lifetime.end.p0(i64 4, ptr %16) #3
  br label %91

91:                                               ; preds = %76
  %92 = load i32, ptr %15, align 4, !tbaa !71
  %93 = add nsw i32 %92, 1
  store i32 %93, ptr %15, align 4, !tbaa !71
  br label %70, !llvm.loop !441

94:                                               ; preds = %75
  %95 = load i64, ptr %6, align 8, !tbaa !64
  call void @_ZN11OpenImageIO6v3_1_08DeepData4sortEl(ptr noundef nonnull align 8 dereferenceable(20) %18, i64 noundef %95)
  %96 = load i64, ptr %6, align 8, !tbaa !64
  call void @_ZN11OpenImageIO6v3_1_08DeepData14merge_overlapsEl(ptr noundef nonnull align 8 dereferenceable(20) %18, i64 noundef %96)
  call void @llvm.lifetime.end.p0(i64 4, ptr %14) #3
  call void @llvm.lifetime.end.p0(i64 4, ptr %13) #3
  store i32 0, ptr %10, align 4
  br label %97

97:                                               ; preds = %94, %31
  call void @llvm.lifetime.end.p0(i64 4, ptr %11) #3
  br label %98

98:                                               ; preds = %97, %25
  call void @llvm.lifetime.end.p0(i64 4, ptr %9) #3
  %99 = load i32, ptr %10, align 4
  switch i32 %99, label %101 [
    i32 0, label %100
    i32 1, label %100
  ]

100:                                              ; preds = %98, %98
  ret void

101:                                              ; preds = %98
  unreachable
}