; Function Attrs: mustprogress uwtable
define void @_ZN11OpenImageIO6v3_1_08DeepData17merge_deep_pixelsElRKS1_i(ptr noundef nonnull align 8 dereferenceable(20) %0, i64 noundef %1, ptr noundef nonnull readonly align 8 captures(none) dereferenceable(20) %2, i32 noundef %3) local_unnamed_addr #5 align 2 {
  %5 = sext i32 %3 to i64
  %6 = icmp sgt i32 %3, -1
  %7 = getelementptr inbounds nuw i8, ptr %2, i64 8
  %8 = load i64, ptr %7, align 8
  %.not.i = icmp sgt i64 %8, %5
  %or.cond.i = select i1 %6, i1 %.not.i, i1 false
  br i1 %or.cond.i, label %_ZNK11OpenImageIO6v3_1_08DeepData7samplesEl.exit, label %_ZNK11OpenImageIO6v3_1_08DeepData7samplesEl.exit.thread

_ZNK11OpenImageIO6v3_1_08DeepData7samplesEl.exit: ; preds = %4
  %9 = load ptr, ptr %2, align 8, !tbaa !35
  %10 = getelementptr inbounds nuw i8, ptr %9, i64 72
  %11 = load ptr, ptr %10, align 8, !tbaa !54
  %12 = getelementptr inbounds nuw i32, ptr %11, i64 %5
  %13 = load i32, ptr %12, align 4, !tbaa !85
  %14 = icmp eq i32 %13, 0
  br i1 %14, label %_ZNK11OpenImageIO6v3_1_08DeepData7samplesEl.exit.thread, label %15

15:                                               ; preds = %_ZNK11OpenImageIO6v3_1_08DeepData7samplesEl.exit
  %16 = icmp sgt i64 %1, -1
  %17 = getelementptr inbounds nuw i8, ptr %0, i64 8
  %18 = load i64, ptr %17, align 8
  %.not.i39 = icmp slt i64 %1, %18
  %or.cond.i40 = select i1 %16, i1 %.not.i39, i1 false
  br i1 %or.cond.i40, label %_ZNK11OpenImageIO6v3_1_08DeepData7samplesEl.exit42, label %_ZNK11OpenImageIO6v3_1_08DeepData7samplesEl.exit42.thread

_ZNK11OpenImageIO6v3_1_08DeepData7samplesEl.exit42: ; preds = %15
  %19 = load ptr, ptr %0, align 8, !tbaa !35
  %20 = getelementptr inbounds nuw i8, ptr %19, i64 72
  %21 = load ptr, ptr %20, align 8, !tbaa !54
  %22 = getelementptr inbounds nuw i32, ptr %21, i64 %1
  %23 = load i32, ptr %22, align 4, !tbaa !85
  %24 = icmp eq i32 %23, 0
  br i1 %24, label %_ZNK11OpenImageIO6v3_1_08DeepData7samplesEl.exit42.thread, label %26

_ZNK11OpenImageIO6v3_1_08DeepData7samplesEl.exit42.thread: ; preds = %15, %_ZNK11OpenImageIO6v3_1_08DeepData7samplesEl.exit42
  %25 = tail call noundef zeroext i1 @_ZN11OpenImageIO6v3_1_08DeepData15copy_deep_pixelElRKS1_l(ptr noundef nonnull align 8 dereferenceable(20) %0, i64 noundef %1, ptr noundef nonnull align 8 dereferenceable(20) %2, i64 noundef %5)
  br label %_ZNK11OpenImageIO6v3_1_08DeepData7samplesEl.exit.thread

26:                                               ; preds = %_ZNK11OpenImageIO6v3_1_08DeepData7samplesEl.exit42
  %27 = add nsw i32 %23, %13
  tail call void @_ZN11OpenImageIO6v3_1_08DeepData11set_samplesEli(ptr noundef nonnull align 8 dereferenceable(20) %0, i64 noundef %1, i32 noundef %27)
  %28 = icmp sgt i32 %13, 0
  br i1 %28, label %.lr.ph, label %._crit_edge

._crit_edge:                                      ; preds = %.lr.ph, %26
  tail call void @_ZN11OpenImageIO6v3_1_08DeepData4sortEl(ptr noundef nonnull align 8 dereferenceable(20) %0, i64 noundef %1)
  %29 = load ptr, ptr %0, align 8, !tbaa !35
  %30 = getelementptr inbounds nuw i8, ptr %29, i64 224
  %31 = load i32, ptr %30, align 8, !tbaa !97
  %32 = getelementptr inbounds nuw i8, ptr %29, i64 228
  %33 = load i32, ptr %32, align 4, !tbaa !101
  br label %37

.lr.ph:                                           ; preds = %26, %.lr.ph
  %.049 = phi i32 [ %36, %.lr.ph ], [ 0, %26 ]
  %34 = add nsw i32 %.049, %23
  %35 = tail call noundef zeroext i1 @_ZN11OpenImageIO6v3_1_08DeepData16copy_deep_sampleEliRKS1_li(ptr noundef nonnull align 8 dereferenceable(20) %0, i64 noundef %1, i32 noundef %34, ptr noundef nonnull align 8 dereferenceable(20) %2, i64 noundef %5, i32 noundef %.049)
  %36 = add nuw nsw i32 %.049, 1
  %exitcond.not = icmp eq i32 %36, %13
  br i1 %exitcond.not, label %._crit_edge, label %.lr.ph, !llvm.loop !165

37:                                               ; preds = %47, %._crit_edge
  %.036 = phi i32 [ 0, %._crit_edge ], [ %52, %47 ]
  %38 = load i64, ptr %17, align 8
  %.not.i43 = icmp slt i64 %1, %38
  br i1 %.not.i43, label %39, label %_ZNK11OpenImageIO6v3_1_08DeepData7samplesEl.exit46

39:                                               ; preds = %37
  %40 = load ptr, ptr %0, align 8, !tbaa !35
  %41 = getelementptr inbounds nuw i8, ptr %40, i64 72
  %42 = load ptr, ptr %41, align 8, !tbaa !54
  %43 = getelementptr inbounds nuw i32, ptr %42, i64 %1
  %44 = load i32, ptr %43, align 4, !tbaa !85
  br label %_ZNK11OpenImageIO6v3_1_08DeepData7samplesEl.exit46

_ZNK11OpenImageIO6v3_1_08DeepData7samplesEl.exit46: ; preds = %37, %39
  %.0.i45 = phi i32 [ %44, %39 ], [ 0, %37 ]
  %45 = icmp slt i32 %.036, %.0.i45
  br i1 %45, label %47, label %46

46:                                               ; preds = %_ZNK11OpenImageIO6v3_1_08DeepData7samplesEl.exit46
  tail call void @_ZN11OpenImageIO6v3_1_08DeepData4sortEl(ptr noundef nonnull align 8 dereferenceable(20) %0, i64 noundef %1)
  tail call void @_ZN11OpenImageIO6v3_1_08DeepData14merge_overlapsEl(ptr noundef nonnull align 8 dereferenceable(20) %0, i64 noundef %1)
  br label %_ZNK11OpenImageIO6v3_1_08DeepData7samplesEl.exit.thread

47:                                               ; preds = %_ZNK11OpenImageIO6v3_1_08DeepData7samplesEl.exit46
  %48 = tail call noundef float @_ZNK11OpenImageIO6v3_1_08DeepData10deep_valueElii(ptr noundef nonnull align 8 dereferenceable(20) %0, i64 noundef %1, i32 noundef %31, i32 noundef %.036)
  %49 = tail call noundef float @_ZNK11OpenImageIO6v3_1_08DeepData10deep_valueElii(ptr noundef nonnull align 8 dereferenceable(20) %0, i64 noundef %1, i32 noundef %33, i32 noundef %.036)
  %50 = tail call noundef zeroext i1 @_ZN11OpenImageIO6v3_1_08DeepData5splitElf(ptr noundef nonnull align 8 dereferenceable(20) %0, i64 noundef %1, float noundef %48)
  %51 = tail call noundef zeroext i1 @_ZN11OpenImageIO6v3_1_08DeepData5splitElf(ptr noundef nonnull align 8 dereferenceable(20) %0, i64 noundef %1, float noundef %49)
  %52 = add nuw nsw i32 %.036, 1
  br label %37, !llvm.loop !166

_ZNK11OpenImageIO6v3_1_08DeepData7samplesEl.exit.thread: ; preds = %4, %_ZNK11OpenImageIO6v3_1_08DeepData7samplesEl.exit42.thread, %46, %_ZNK11OpenImageIO6v3_1_08DeepData7samplesEl.exit
  ret void
}